target datalayout = "e-m:e-p270:32:32-p271:32:32-p272:64:64-i64:64-i128:128-f80:128-n8:16:32:64-S128"
target triple = "x86_64-pc-linux-gnu"

%"class.grpc_core::ChannelArgs" = type { %"class.grpc_core::AVL" }
%"class.grpc_core::AVL" = type { %"class.grpc_core::RefCountedPtr" }
%"class.grpc_core::RefCountedPtr" = type { ptr }
%"class.grpc_core::RefCounted" = type { %"class.grpc_core::RefCount" }
%"class.grpc_core::RefCount" = type { %"struct.std::atomic" }
%"struct.std::atomic" = type { %"struct.std::__atomic_base" }
%"struct.std::__atomic_base" = type { i64 }

; Function Attrs: alwaysinline mustprogress nounwind uwtable
define linkonce_odr noundef i64 @_ZNSt13__atomic_baseIlE9fetch_addElSt12memory_order(ptr noundef nonnull align 8 dereferenceable(8) %0, i64 noundef %1, i32 noundef %2) #18 comdat align 2 {
  %4 = alloca ptr, align 8
  %5 = alloca i64, align 8
  %6 = alloca i32, align 4
  %7 = alloca i64, align 8
  %8 = alloca i64, align 8
  store ptr %0, ptr %4, align 8, !tbaa !165
  store i64 %1, ptr %5, align 8, !tbaa !23
  store i32 %2, ptr %6, align 4, !tbaa !167
  %9 = load ptr, ptr %4, align 8
  %10 = getelementptr inbounds nuw %"struct.std::__atomic_base", ptr %9, i32 0, i32 0
  %11 = load i32, ptr %6, align 4, !tbaa !167
  %12 = load i64, ptr %5, align 8, !tbaa !23
  store i64 %12, ptr %7, align 8, !tbaa !23
  switch i32 %11, label %13 [
    i32 1, label %16
    i32 2, label %16
    i32 3, label %19
    i32 4, label %22
    i32 5, label %25
  ]

13:                                               ; preds = %3
  %14 = load i64, ptr %7, align 8
  %15 = atomicrmw add ptr %10, i64 %14 monotonic, align 8
  store i64 %15, ptr %8, align 8
  br label %28

16:                                               ; preds = %3, %3
  %17 = load i64, ptr %7, align 8
  %18 = atomicrmw add ptr %10, i64 %17 acquire, align 8
  store i64 %18, ptr %8, align 8
  br label %28

19:                                               ; preds = %3
  %20 = load i64, ptr %7, align 8
  %21 = atomicrmw add ptr %10, i64 %20 release, align 8
  store i64 %21, ptr %8, align 8
  br label %28

22:                                               ; preds = %3
  %23 = load i64, ptr %7, align 8
  %24 = atomicrmw add ptr %10, i64 %23 acq_rel, align 8
  store i64 %24, ptr %8, align 8
  br label %28

25:                                               ; preds = %3
  %26 = load i64, ptr %7, align 8
  %27 = atomicrmw add ptr %10, i64 %26 seq_cst, align 8
  store i64 %27, ptr %8, align 8
  br label %28

28:                                               ; preds = %25, %22, %19, %16, %13
  %29 = load i64, ptr %8, align 8, !tbaa !23
  ret i64 %29
}

; Function Attrs: mustprogress nounwind uwtable
define linkonce_odr void @_ZN9grpc_core8RefCount3RefEl(ptr noundef nonnull align 8 dereferenceable(8) %0, i64 noundef %1) #6 comdat align 2 {
  %3 = alloca ptr, align 8
  %4 = alloca i64, align 8
  store ptr %0, ptr %3, align 8, !tbaa !163
  store i64 %1, ptr %4, align 8, !tbaa !23
  %5 = load ptr, ptr %3, align 8
  %6 = getelementptr inbounds nuw %"class.grpc_core::RefCount", ptr %5, i32 0, i32 0
  %7 = load i64, ptr %4, align 8, !tbaa !23
  %8 = call noundef i64 @_ZNSt13__atomic_baseIlE9fetch_addElSt12memory_order(ptr noundef nonnull align 8 dereferenceable(8) %6, i64 noundef %7, i32 noundef 0) #3
  ret void
}

; Function Attrs: mustprogress nounwind uwtable
define linkonce_odr void @_ZNK9grpc_core10RefCountedINS_3AVLINS_21RefCountedStringValueENS_11ChannelArgs5ValueEE4NodeENS_22NonPolymorphicRefCountENS_11UnrefDeleteEE17IncrementRefCountEv(ptr noundef nonnull align 8 dereferenceable(8) %0) #6 comdat align 2 {
  %2 = alloca ptr, align 8
  store ptr %0, ptr %2, align 8, !tbaa !176
  %3 = load ptr, ptr %2, align 8
  %4 = getelementptr inbounds nuw %"class.grpc_core::RefCounted", ptr %3, i32 0, i32 0
  call void @_ZN9grpc_core8RefCount3RefEl(ptr noundef nonnull align 8 dereferenceable(8) %4, i64 noundef 1)
  ret void
}

; Function Attrs: mustprogress uwtable
define linkonce_odr void @_ZN9grpc_core13RefCountedPtrINS_3AVLINS_21RefCountedStringValueENS_11ChannelArgs5ValueEE4NodeEEC2ERKS7_(ptr noundef nonnull align 8 dereferenceable(8) %0, ptr noundef nonnull align 8 dereferenceable(8) %1) unnamed_addr #5 comdat align 2 {
  %3 = alloca ptr, align 8
  %4 = alloca ptr, align 8
  store ptr %0, ptr %3, align 8, !tbaa !173
  store ptr %1, ptr %4, align 8, !tbaa !173
  %5 = load ptr, ptr %3, align 8
  %6 = getelementptr inbounds nuw %"class.grpc_core::RefCountedPtr", ptr %5, i32 0, i32 0
  store ptr null, ptr %6, align 8, !tbaa !175
  %7 = load ptr, ptr %4, align 8, !tbaa !173
  %8 = getelementptr inbounds nuw %"class.grpc_core::RefCountedPtr", ptr %7, i32 0, i32 0
  %9 = load ptr, ptr %8, align 8, !tbaa !175
  %10 = icmp ne ptr %9, null
  br i1 %10, label %11, label %15

11:                                               ; preds = %2
  %12 = load ptr, ptr %4, align 8, !tbaa !173
  %13 = getelementptr inbounds nuw %"class.grpc_core::RefCountedPtr", ptr %12, i32 0, i32 0
  %14 = load ptr, ptr %13, align 8, !tbaa !175
  call void @_ZNK9grpc_core10RefCountedINS_3AVLINS_21RefCountedStringValueENS_11ChannelArgs5ValueEE4NodeENS_22NonPolymorphicRefCountENS_11UnrefDeleteEE17IncrementRefCountEv(ptr noundef nonnull align 8 dereferenceable(8) %14)
  br label %15

15:                                               ; preds = %11, %2
  %16 = load ptr, ptr %4, align 8, !tbaa !173
  %17 = getelementptr inbounds nuw %"class.grpc_core::RefCountedPtr", ptr %16, i32 0, i32 0
  %18 = load ptr, ptr %17, align 8, !tbaa !175
  %19 = getelementptr inbounds nuw %"class.grpc_core::RefCountedPtr", ptr %5, i32 0, i32 0
  store ptr %18, ptr %19, align 8, !tbaa !175
  ret void
}

; Function Attrs: inlinehint mustprogress uwtable
define linkonce_odr void @_ZN9grpc_core3AVLINS_21RefCountedStringValueENS_11ChannelArgs5ValueEEC2ERKS4_(ptr noundef nonnull align 8 dereferenceable(8) %0, ptr noundef nonnull align 8 dereferenceable(8) %1) unnamed_addr #4 comdat align 2 {
  %3 = alloca ptr, align 8
  %4 = alloca ptr, align 8
  store ptr %0, ptr %3, align 8, !tbaa !18
  store ptr %1, ptr %4, align 8, !tbaa !18
  %5 = load ptr, ptr %3, align 8
  %6 = getelementptr inbounds nuw %"class.grpc_core::AVL", ptr %5, i32 0, i32 0
  %7 = load ptr, ptr %4, align 8, !tbaa !18
  %8 = getelementptr inbounds nuw %"class.grpc_core::AVL", ptr %7, i32 0, i32 0
  call void @_ZN9grpc_core13RefCountedPtrINS_3AVLINS_21RefCountedStringValueENS_11ChannelArgs5ValueEE4NodeEEC2ERKS7_(ptr noundef nonnull align 8 dereferenceable(8) %6, ptr noundef nonnull align 8 dereferenceable(8) %8)
  ret void
}

; Function Attrs: mustprogress uwtable
define void @_ZN9grpc_core11ChannelArgsC2ERKS0_(ptr noundef nonnull align 8 dereferenceable(8) %0, ptr noundef nonnull align 8 dereferenceable(8) %1) unnamed_addr #5 align 2 {
  %3 = alloca ptr, align 8
  %4 = alloca ptr, align 8
  store ptr %0, ptr %3, align 8, !tbaa !16
  store ptr %1, ptr %4, align 8, !tbaa !16
  %5 = load ptr, ptr %3, align 8
  %6 = getelementptr inbounds nuw %"class.grpc_core::ChannelArgs", ptr %5, i32 0, i32 0
  %7 = load ptr, ptr %4, align 8, !tbaa !16
  %8 = getelementptr inbounds nuw %"class.grpc_core::ChannelArgs", ptr %7, i32 0, i32 0
  call void @_ZN9grpc_core3AVLINS_21RefCountedStringValueENS_11ChannelArgs5ValueEEC2ERKS4_(ptr noundef nonnull align 8 dereferenceable(8) %6, ptr noundef nonnull align 8 dereferenceable(8) %8)
  ret void
}