; Function Attrs: mustprogress nofree norecurse nounwind willreturn memory(readwrite, inaccessiblemem: none) uwtable
define void @_ZN9grpc_core11ChannelArgsC2ERKS0_(ptr noundef nonnull writeonly align 8 captures(none) dereferenceable(8) initializes((0, 8)) %0, ptr noundef nonnull readonly align 8 captures(none) dereferenceable(8) %1) unnamed_addr #14 align 2 {
  store ptr null, ptr %0, align 8, !tbaa !21
  %3 = load ptr, ptr %1, align 8, !tbaa !21
  %.not.i.i = icmp eq ptr %3, null
  br i1 %.not.i.i, label %_ZN9grpc_core3AVLINS_21RefCountedStringValueENS_11ChannelArgs5ValueEEC2ERKS4_.exit, label %4

4:                                                ; preds = %2
  %5 = atomicrmw add ptr %3, i64 1 monotonic, align 8
  %.pre.i.i = load ptr, ptr %1, align 8, !tbaa !21
  br label %_ZN9grpc_core3AVLINS_21RefCountedStringValueENS_11ChannelArgs5ValueEEC2ERKS4_.exit

_ZN9grpc_core3AVLINS_21RefCountedStringValueENS_11ChannelArgs5ValueEEC2ERKS4_.exit: ; preds = %2, %4
  %6 = phi ptr [ %.pre.i.i, %4 ], [ null, %2 ]
  store ptr %6, ptr %0, align 8, !tbaa !21
  ret void
}